target datalayout = "e-m:e-p270:32:32-p271:32:32-p272:64:64-i64:64-i128:128-f80:128-n8:16:32:64-S128"
target triple = "x86_64-pc-linux-gnu"

%struct.pmi2_job_info = type { %struct.slurm_step_id_msg, i32, i32, i32, i32, i32, ptr, i32, i32, ptr, ptr, ptr, ptr, ptr, ptr, ptr, ptr }
%struct.slurm_step_id_msg = type { i64, i32, i32, i32 }
%struct.slurm_opt_t = type { ptr, ptr, ptr, ptr, ptr, ptr, ptr, ptr, i32, ptr, ptr, ptr, ptr, i32, i32, ptr, i32, i8, i8, i32, i8, i32, i32, ptr, i8, i32, i32, i64, i32, i32, i32, i32, i32, i32, ptr, i32, ptr, i8, i32, i32, ptr, i32, i32, i32, ptr, ptr, i32, i32, ptr, ptr, ptr, i32, i16, i16, i16, i8, i8, ptr, i8, i16, ptr, ptr, i32, i32, i32, ptr, ptr, ptr, ptr, ptr, ptr, i32, i64, i64, i64, i16, i64, ptr, ptr, ptr, ptr, ptr, ptr, ptr, i8, ptr, ptr, ptr, ptr, i8, i64, ptr, i16, ptr, i32, i32, ptr, ptr, i32, i32, i32, ptr, i32, i32, i32, i32, i32, ptr, i64, i32, i16, i32, ptr, ptr, ptr, ptr, ptr, i16, ptr, ptr, i16, i8, ptr, ptr, ptr, ptr }
%struct.srun_opt_t = type { i16, ptr, ptr, ptr, i8, ptr, i16, i8, ptr, i32, i8, i8, i8, ptr, i8, i8, i8, i32, i32, i32, i8, i32, i32, i32, ptr, i8, i32, i8, i8, ptr, ptr, i32, i8, i8, ptr, ptr, ptr, i8, i32, i8, i32, ptr, ptr, i8, i8, i16, i8, i8 }

@job_info = external global %struct.pmi2_job_info, align 8
@spawn_seq = internal global i32 1, align 4
@spawned_srun_pids = internal global ptr null, align 8

; Function Attrs: nounwind uwtable
define internal i32 @_wait_for_all() #0 {
  %1 = alloca i32, align 4
  %2 = alloca i32, align 4
  %3 = alloca i32, align 4
  %4 = alloca i32, align 4
  call void @llvm.lifetime.start.p0(i64 4, ptr %1) #7
  call void @llvm.lifetime.start.p0(i64 4, ptr %2) #7
  call void @llvm.lifetime.start.p0(i64 4, ptr %3) #7
  call void @llvm.lifetime.start.p0(i64 4, ptr %4) #7
  store i32 0, ptr %4, align 4
  store i32 1, ptr %2, align 4
  br label %5

5:                                                ; preds = %39, %0
  %6 = load i32, ptr %2, align 4
  %7 = load i32, ptr @spawn_seq, align 4
  %8 = icmp ult i32 %6, %7
  br i1 %8, label %9, label %42

9:                                                ; preds = %5
  %10 = load ptr, ptr @spawned_srun_pids, align 8
  %11 = load i32, ptr %2, align 4
  %12 = sext i32 %11 to i64
  %13 = getelementptr inbounds i32, ptr %10, i64 %12
  %14 = load i32, ptr %13, align 4
  %15 = icmp ne i32 %14, 0
  br i1 %15, label %17, label %16

16:                                               ; preds = %9
  br label %39

17:                                               ; preds = %9
  %18 = load ptr, ptr @spawned_srun_pids, align 8
  %19 = load i32, ptr %2, align 4
  %20 = sext i32 %19 to i64
  %21 = getelementptr inbounds i32, ptr %18, i64 %20
  %22 = load i32, ptr %21, align 4
  %23 = call i32 @waitpid(i32 noundef %22, ptr noundef %3, i32 noundef 1)
  store i32 %23, ptr %1, align 4
  %24 = load i32, ptr %1, align 4
  %25 = load ptr, ptr @spawned_srun_pids, align 8
  %26 = load i32, ptr %2, align 4
  %27 = sext i32 %26 to i64
  %28 = getelementptr inbounds i32, ptr %25, i64 %27
  %29 = load i32, ptr %28, align 4
  %30 = icmp eq i32 %24, %29
  br i1 %30, label %31, label %38

31:                                               ; preds = %17
  %32 = load ptr, ptr @spawned_srun_pids, align 8
  %33 = load i32, ptr %2, align 4
  %34 = sext i32 %33 to i64
  %35 = getelementptr inbounds i32, ptr %32, i64 %34
  store i32 0, ptr %35, align 4
  %36 = load i32, ptr %4, align 4
  %37 = add nsw i32 %36, 1
  store i32 %37, ptr %4, align 4
  br label %38

38:                                               ; preds = %31, %17
  br label %39

39:                                               ; preds = %38, %16
  %40 = load i32, ptr %2, align 4
  %41 = add nsw i32 %40, 1
  store i32 %41, ptr %2, align 4
  br label %5, !llvm.loop !30

42:                                               ; preds = %5
  %43 = load i32, ptr %4, align 4
  call void @llvm.lifetime.end.p0(i64 4, ptr %4) #7
  call void @llvm.lifetime.end.p0(i64 4, ptr %3) #7
  call void @llvm.lifetime.end.p0(i64 4, ptr %2) #7
  call void @llvm.lifetime.end.p0(i64 4, ptr %1) #7
  ret i32 %43
}

; Function Attrs: nounwind uwtable
define dso_local void @spawn_job_wait() #0 {
  %1 = alloca i32, align 4
  %2 = alloca i32, align 4
  %3 = alloca i32, align 4
  call void @llvm.lifetime.start.p0(i64 4, ptr %1) #7
  call void @llvm.lifetime.start.p0(i64 4, ptr %2) #7
  call void @llvm.lifetime.start.p0(i64 4, ptr %3) #7
  %4 = load ptr, ptr getelementptr inbounds nuw (%struct.pmi2_job_info, ptr @job_info, i32 0, i32 15), align 8
  %5 = icmp ne ptr %4, null
  br i1 %5, label %6, label %12

6:                                                ; preds = %0
  %7 = load ptr, ptr getelementptr inbounds nuw (%struct.pmi2_job_info, ptr @job_info, i32 0, i32 15), align 8
  %8 = getelementptr inbounds nuw %struct.slurm_opt_t, ptr %7, i32 0, i32 3
  %9 = load ptr, ptr %8, align 8
  %10 = getelementptr inbounds nuw %struct.srun_opt_t, ptr %9, i32 0, i32 22
  %11 = load i32, ptr %10, align 8
  store i32 %11, ptr %3, align 4
  br label %13

12:                                               ; preds = %0
  store i32 0, ptr %3, align 4
  br label %13

13:                                               ; preds = %12, %6
  %14 = load i32, ptr %3, align 4
  %15 = icmp eq i32 %14, 0
  br i1 %15, label %16, label %17

16:                                               ; preds = %13
  store i32 60, ptr %3, align 4
  br label %17

17:                                               ; preds = %16, %13
  %18 = call i32 @_wait_for_all()
  store i32 %18, ptr %1, align 4
  br label %19

19:                                               ; preds = %29, %17
  %20 = load i32, ptr %3, align 4
  %21 = icmp sgt i32 %20, 0
  br i1 %21, label %22, label %27

22:                                               ; preds = %19
  %23 = load i32, ptr %1, align 4
  %24 = load i32, ptr @spawn_seq, align 4
  %25 = sub i32 %24, 1
  %26 = icmp ne i32 %23, %25
  br label %27

27:                                               ; preds = %22, %19
  %28 = phi i1 [ false, %19 ], [ %26, %22 ]
  br i1 %28, label %29, label %36

29:                                               ; preds = %27
  %30 = call i32 @sleep(i32 noundef 1)
  %31 = call i32 @_wait_for_all()
  %32 = load i32, ptr %1, align 4
  %33 = add nsw i32 %32, %31
  store i32 %33, ptr %1, align 4
  %34 = load i32, ptr %3, align 4
  %35 = add nsw i32 %34, -1
  store i32 %35, ptr %3, align 4
  br label %19, !llvm.loop !28

36:                                               ; preds = %27
  store i32 1, ptr %2, align 4
  br label %37

37:                                               ; preds = %56, %36
  %38 = load i32, ptr %2, align 4
  %39 = load i32, ptr @spawn_seq, align 4
  %40 = icmp ult i32 %38, %39
  br i1 %40, label %41, label %59

41:                                               ; preds = %37
  %42 = load ptr, ptr @spawned_srun_pids, align 8
  %43 = load i32, ptr %2, align 4
  %44 = sext i32 %43 to i64
  %45 = getelementptr inbounds i32, ptr %42, i64 %44
  %46 = load i32, ptr %45, align 4
  %47 = icmp ne i32 %46, 0
  br i1 %47, label %49, label %48

48:                                               ; preds = %41
  br label %56

49:                                               ; preds = %41
  %50 = load ptr, ptr @spawned_srun_pids, align 8
  %51 = load i32, ptr %2, align 4
  %52 = sext i32 %51 to i64
  %53 = getelementptr inbounds i32, ptr %50, i64 %52
  %54 = load i32, ptr %53, align 4
  %55 = call i32 @kill(i32 noundef %54, i32 noundef 15) #7
  br label %56

56:                                               ; preds = %49, %48
  %57 = load i32, ptr %2, align 4
  %58 = add nsw i32 %57, 1
  store i32 %58, ptr %2, align 4
  br label %37, !llvm.loop !29

59:                                               ; preds = %37
  call void @llvm.lifetime.end.p0(i64 4, ptr %3) #7
  call void @llvm.lifetime.end.p0(i64 4, ptr %2) #7
  call void @llvm.lifetime.end.p0(i64 4, ptr %1) #7
  ret void
}