; Function Attrs: nounwind uwtable
define dso_local void @spawn_job_wait() local_unnamed_addr #0 {
  %1 = alloca i32, align 4
  %2 = alloca i32, align 4
  %3 = load ptr, ptr getelementptr inbounds nuw (i8, ptr @job_info, i64 112), align 8
  %.not = icmp eq ptr %3, null
  br i1 %.not, label %.thread, label %4

4:                                                ; preds = %0
  %5 = getelementptr inbounds nuw i8, ptr %3, i64 24
  %6 = load ptr, ptr %5, align 8
  %7 = getelementptr inbounds nuw i8, ptr %6, i64 104
  %8 = load i32, ptr %7, align 8
  %.fr = freeze i32 %8
  %9 = icmp eq i32 %.fr, 0
  br i1 %9, label %.thread, label %10

.thread:                                          ; preds = %0, %4
  br label %10

10:                                               ; preds = %4, %.thread
  %11 = phi i32 [ 60, %.thread ], [ %.fr, %4 ]
  call void @llvm.lifetime.start.p0(i64 4, ptr nonnull %2) #10
  %12 = load i32, ptr @spawn_seq, align 4
  %13 = icmp ugt i32 %12, 1
  br i1 %13, label %.lr.ph.preheader.i, label %_wait_for_all.exit

.lr.ph.preheader.i:                               ; preds = %10
  %.pre14.i = load ptr, ptr @spawned_srun_pids, align 8
  br label %.lr.ph.i

.lr.ph.i:                                         ; preds = %25, %.lr.ph.preheader.i
  %14 = phi ptr [ %.pre14.i, %.lr.ph.preheader.i ], [ %26, %25 ]
  %indvars.iv.i = phi i64 [ 1, %.lr.ph.preheader.i ], [ %indvars.iv.next.i, %25 ]
  %.012.i = phi i32 [ 0, %.lr.ph.preheader.i ], [ %.1.i, %25 ]
  %15 = getelementptr inbounds nuw i32, ptr %14, i64 %indvars.iv.i
  %16 = load i32, ptr %15, align 4
  %.not.i = icmp eq i32 %16, 0
  br i1 %.not.i, label %25, label %17

17:                                               ; preds = %.lr.ph.i
  %18 = call i32 @waitpid(i32 noundef %16, ptr noundef nonnull %2, i32 noundef 1) #10
  %19 = load ptr, ptr @spawned_srun_pids, align 8
  %20 = getelementptr inbounds nuw i32, ptr %19, i64 %indvars.iv.i
  %21 = load i32, ptr %20, align 4
  %22 = icmp eq i32 %18, %21
  br i1 %22, label %23, label %25

23:                                               ; preds = %17
  store i32 0, ptr %20, align 4
  %24 = add nsw i32 %.012.i, 1
  %.pre.i = load ptr, ptr @spawned_srun_pids, align 8
  br label %25

25:                                               ; preds = %23, %17, %.lr.ph.i
  %26 = phi ptr [ %.pre.i, %23 ], [ %19, %17 ], [ %14, %.lr.ph.i ]
  %.1.i = phi i32 [ %24, %23 ], [ %.012.i, %17 ], [ %.012.i, %.lr.ph.i ]
  %indvars.iv.next.i = add nuw nsw i64 %indvars.iv.i, 1
  %27 = load i32, ptr @spawn_seq, align 4
  %28 = zext i32 %27 to i64
  %29 = icmp samesign ult i64 %indvars.iv.next.i, %28
  br i1 %29, label %.lr.ph.i, label %_wait_for_all.exit, !llvm.loop !36

_wait_for_all.exit:                               ; preds = %25, %10
  %30 = phi i32 [ %12, %10 ], [ %27, %25 ]
  %.0.lcssa.i = phi i32 [ 0, %10 ], [ %.1.i, %25 ]
  call void @llvm.lifetime.end.p0(i64 4, ptr nonnull %2) #10
  %31 = icmp sgt i32 %11, 0
  %32 = add i32 %30, -1
  %33 = icmp ne i32 %.0.lcssa.i, %32
  %34 = select i1 %31, i1 %33, i1 false
  br i1 %34, label %.lr.ph, label %.preheader

.preheader:                                       ; preds = %_wait_for_all.exit24, %_wait_for_all.exit
  %35 = phi i32 [ %30, %_wait_for_all.exit ], [ %56, %_wait_for_all.exit24 ]
  %36 = icmp ugt i32 %35, 1
  br i1 %36, label %.lr.ph30.preheader, label %._crit_edge

.lr.ph30.preheader:                               ; preds = %.preheader
  %.pre32 = load ptr, ptr @spawned_srun_pids, align 8
  br label %.lr.ph30

.lr.ph:                                           ; preds = %_wait_for_all.exit, %_wait_for_all.exit24
  %.128 = phi i32 [ %58, %_wait_for_all.exit24 ], [ %11, %_wait_for_all.exit ]
  %.01027 = phi i32 [ %57, %_wait_for_all.exit24 ], [ %.0.lcssa.i, %_wait_for_all.exit ]
  %37 = call i32 @sleep(i32 noundef 1) #10
  call void @llvm.lifetime.start.p0(i64 4, ptr nonnull %1) #10
  %38 = load i32, ptr @spawn_seq, align 4
  %39 = icmp ugt i32 %38, 1
  br i1 %39, label %.lr.ph.preheader.i15, label %_wait_for_all.exit24

.lr.ph.preheader.i15:                             ; preds = %.lr.ph
  %.pre14.i16 = load ptr, ptr @spawned_srun_pids, align 8
  br label %.lr.ph.i17

.lr.ph.i17:                                       ; preds = %51, %.lr.ph.preheader.i15
  %40 = phi ptr [ %.pre14.i16, %.lr.ph.preheader.i15 ], [ %52, %51 ]
  %indvars.iv.i18 = phi i64 [ 1, %.lr.ph.preheader.i15 ], [ %indvars.iv.next.i22, %51 ]
  %.012.i19 = phi i32 [ 0, %.lr.ph.preheader.i15 ], [ %.1.i21, %51 ]
  %41 = getelementptr inbounds nuw i32, ptr %40, i64 %indvars.iv.i18
  %42 = load i32, ptr %41, align 4
  %.not.i20 = icmp eq i32 %42, 0
  br i1 %.not.i20, label %51, label %43

43:                                               ; preds = %.lr.ph.i17
  %44 = call i32 @waitpid(i32 noundef %42, ptr noundef nonnull %1, i32 noundef 1) #10
  %45 = load ptr, ptr @spawned_srun_pids, align 8
  %46 = getelementptr inbounds nuw i32, ptr %45, i64 %indvars.iv.i18
  %47 = load i32, ptr %46, align 4
  %48 = icmp eq i32 %44, %47
  br i1 %48, label %49, label %51

49:                                               ; preds = %43
  store i32 0, ptr %46, align 4
  %50 = add nsw i32 %.012.i19, 1
  %.pre.i23 = load ptr, ptr @spawned_srun_pids, align 8
  br label %51

51:                                               ; preds = %49, %43, %.lr.ph.i17
  %52 = phi ptr [ %.pre.i23, %49 ], [ %45, %43 ], [ %40, %.lr.ph.i17 ]
  %.1.i21 = phi i32 [ %50, %49 ], [ %.012.i19, %43 ], [ %.012.i19, %.lr.ph.i17 ]
  %indvars.iv.next.i22 = add nuw nsw i64 %indvars.iv.i18, 1
  %53 = load i32, ptr @spawn_seq, align 4
  %54 = zext i32 %53 to i64
  %55 = icmp samesign ult i64 %indvars.iv.next.i22, %54
  br i1 %55, label %.lr.ph.i17, label %_wait_for_all.exit24, !llvm.loop !36

_wait_for_all.exit24:                             ; preds = %51, %.lr.ph
  %56 = phi i32 [ %38, %.lr.ph ], [ %53, %51 ]
  %.0.lcssa.i14 = phi i32 [ 0, %.lr.ph ], [ %.1.i21, %51 ]
  call void @llvm.lifetime.end.p0(i64 4, ptr nonnull %1) #10
  %57 = add nsw i32 %.0.lcssa.i14, %.01027
  %58 = add nsw i32 %.128, -1
  %59 = icmp sgt i32 %.128, 1
  %60 = add i32 %56, -1
  %61 = icmp ne i32 %57, %60
  %62 = select i1 %59, i1 %61, i1 false
  br i1 %62, label %.lr.ph, label %.preheader, !llvm.loop !37

.lr.ph30:                                         ; preds = %.lr.ph30.preheader, %69
  %63 = phi i32 [ %35, %.lr.ph30.preheader ], [ %70, %69 ]
  %64 = phi ptr [ %.pre32, %.lr.ph30.preheader ], [ %71, %69 ]
  %indvars.iv = phi i64 [ 1, %.lr.ph30.preheader ], [ %indvars.iv.next, %69 ]
  %65 = getelementptr inbounds nuw i32, ptr %64, i64 %indvars.iv
  %66 = load i32, ptr %65, align 4
  %.not13 = icmp eq i32 %66, 0
  br i1 %.not13, label %69, label %67

67:                                               ; preds = %.lr.ph30
  %68 = call i32 @kill(i32 noundef %66, i32 noundef 15) #10
  %.pre = load ptr, ptr @spawned_srun_pids, align 8
  %.pre33 = load i32, ptr @spawn_seq, align 4
  br label %69

69:                                               ; preds = %.lr.ph30, %67
  %70 = phi i32 [ %63, %.lr.ph30 ], [ %.pre33, %67 ]
  %71 = phi ptr [ %64, %.lr.ph30 ], [ %.pre, %67 ]
  %indvars.iv.next = add nuw nsw i64 %indvars.iv, 1
  %72 = zext i32 %70 to i64
  %73 = icmp samesign ult i64 %indvars.iv.next, %72
  br i1 %73, label %.lr.ph30, label %._crit_edge, !llvm.loop !38

._crit_edge:                                      ; preds = %69, %.preheader
  ret void
}